; ModuleID = '9/1146.c'
source_filename = "9/1146.c"
target datalayout = "e-m:e-p270:32:32-p271:32:32-p272:64:64-i64:64-f80:128-n8:16:32:64-S128"
target triple = "x86_64-pc-linux-gnu"

@.str = private unnamed_addr constant [3 x i8] c"%d\00", align 1
@.str.1 = private unnamed_addr constant [6 x i8] c"%s %d\00", align 1
@.str.2 = private unnamed_addr constant [4 x i8] c"%s\0A\00", align 1

; Function Attrs: noinline nounwind uwtable
define dso_local i32 @main() #0 {
  %1 = alloca i32, align 4
  %2 = alloca i32, align 4
  %3 = alloca i32, align 4
  %4 = alloca i32, align 4
  %5 = alloca i32, align 4
  %6 = alloca [100 x i32], align 16
  %7 = alloca [100 x i32], align 16
  %8 = alloca [100 x i32], align 16
  %9 = alloca [100 x i32], align 16
  %10 = alloca [100 x [100 x i8]], align 16
  store i32 0, i32* %1, align 4
  %11 = bitcast [100 x i32]* %6 to i8*
  call void @llvm.memset.p0i8.i64(i8* align 16 %11, i8 0, i64 400, i1 false)
  %12 = bitcast [100 x i32]* %7 to i8*
  call void @llvm.memset.p0i8.i64(i8* align 16 %12, i8 0, i64 400, i1 false)
  %13 = bitcast [100 x i32]* %8 to i8*
  call void @llvm.memset.p0i8.i64(i8* align 16 %13, i8 0, i64 400, i1 false)
  %14 = bitcast [100 x i32]* %9 to i8*
  call void @llvm.memset.p0i8.i64(i8* align 16 %14, i8 0, i64 400, i1 false)
  store i32 0, i32* %3, align 4
  br label %15

15:                                               ; preds = %23, %0
  %16 = load i32, i32* %3, align 4
  %17 = icmp slt i32 %16, 100
  br i1 %17, label %18, label %26

18:                                               ; preds = %15
  %19 = load i32, i32* %3, align 4
  %20 = load i32, i32* %3, align 4
  %21 = sext i32 %20 to i64
  %22 = getelementptr inbounds [100 x i32], [100 x i32]* %6, i64 0, i64 %21
  store i32 %19, i32* %22, align 4
  br label %23

23:                                               ; preds = %18
  %24 = load i32, i32* %3, align 4
  %25 = add nsw i32 %24, 1
  store i32 %25, i32* %3, align 4
  br label %15

26:                                               ; preds = %15
  %27 = call i32 (i8*, ...) @__isoc99_scanf(i8* getelementptr inbounds ([3 x i8], [3 x i8]* @.str, i64 0, i64 0), i32* %2)
  store i32 0, i32* %3, align 4
  br label %28

28:                                               ; preds = %62, %26
  %29 = load i32, i32* %3, align 4
  %30 = load i32, i32* %2, align 4
  %31 = icmp slt i32 %29, %30
  br i1 %31, label %32, label %65

32:                                               ; preds = %28
  %33 = load i32, i32* %3, align 4
  %34 = sext i32 %33 to i64
  %35 = getelementptr inbounds [100 x [100 x i8]], [100 x [100 x i8]]* %10, i64 0, i64 %34
  %36 = load i32, i32* %3, align 4
  %37 = sext i32 %36 to i64
  %38 = getelementptr inbounds [100 x i32], [100 x i32]* %7, i64 0, i64 %37
  %39 = call i32 (i8*, ...) @__isoc99_scanf(i8* getelementptr inbounds ([6 x i8], [6 x i8]* @.str.1, i64 0, i64 0), [100 x i8]* %35, i32* %38)
  %40 = load i32, i32* %3, align 4
  %41 = sext i32 %40 to i64
  %42 = getelementptr inbounds [100 x i32], [100 x i32]* %7, i64 0, i64 %41
  %43 = load i32, i32* %42, align 4
  %44 = icmp sgt i32 %43, 59
  br i1 %44, label %45, label %53

45:                                               ; preds = %32
  %46 = load i32, i32* %3, align 4
  %47 = sext i32 %46 to i64
  %48 = getelementptr inbounds [100 x i32], [100 x i32]* %7, i64 0, i64 %47
  %49 = load i32, i32* %48, align 4
  %50 = load i32, i32* %3, align 4
  %51 = sext i32 %50 to i64
  %52 = getelementptr inbounds [100 x i32], [100 x i32]* %8, i64 0, i64 %51
  store i32 %49, i32* %52, align 4
  br label %61

53:                                               ; preds = %32
  %54 = load i32, i32* %3, align 4
  %55 = sext i32 %54 to i64
  %56 = getelementptr inbounds [100 x i32], [100 x i32]* %7, i64 0, i64 %55
  %57 = load i32, i32* %56, align 4
  %58 = load i32, i32* %3, align 4
  %59 = sext i32 %58 to i64
  %60 = getelementptr inbounds [100 x i32], [100 x i32]* %9, i64 0, i64 %59
  store i32 %57, i32* %60, align 4
  br label %61

61:                                               ; preds = %53, %45
  br label %62

62:                                               ; preds = %61
  %63 = load i32, i32* %3, align 4
  %64 = add nsw i32 %63, 1
  store i32 %64, i32* %3, align 4
  br label %28

65:                                               ; preds = %28
  store i32 0, i32* %3, align 4
  br label %66

66:                                               ; preds = %116, %65
  %67 = load i32, i32* %3, align 4
  %68 = load i32, i32* %2, align 4
  %69 = icmp slt i32 %67, %68
  br i1 %69, label %70, label %119

70:                                               ; preds = %66
  store i32 0, i32* %4, align 4
  br label %71

71:                                               ; preds = %112, %70
  %72 = load i32, i32* %4, align 4
  %73 = load i32, i32* %2, align 4
  %74 = sub nsw i32 %73, 1
  %75 = icmp slt i32 %72, %74
  br i1 %75, label %76, label %115

76:                                               ; preds = %71
  %77 = load i32, i32* %4, align 4
  %78 = sext i32 %77 to i64
  %79 = getelementptr inbounds [100 x i32], [100 x i32]* %6, i64 0, i64 %78
  %80 = load i32, i32* %79, align 4
  %81 = sext i32 %80 to i64
  %82 = getelementptr inbounds [100 x i32], [100 x i32]* %8, i64 0, i64 %81
  %83 = load i32, i32* %82, align 4
  %84 = load i32, i32* %4, align 4
  %85 = add nsw i32 %84, 1
  %86 = sext i32 %85 to i64
  %87 = getelementptr inbounds [100 x i32], [100 x i32]* %6, i64 0, i64 %86
  %88 = load i32, i32* %87, align 4
  %89 = sext i32 %88 to i64
  %90 = getelementptr inbounds [100 x i32], [100 x i32]* %8, i64 0, i64 %89
  %91 = load i32, i32* %90, align 4
  %92 = icmp slt i32 %83, %91
  br i1 %92, label %93, label %111

93:                                               ; preds = %76
  %94 = load i32, i32* %4, align 4
  %95 = sext i32 %94 to i64
  %96 = getelementptr inbounds [100 x i32], [100 x i32]* %6, i64 0, i64 %95
  %97 = load i32, i32* %96, align 4
  store i32 %97, i32* %5, align 4
  %98 = load i32, i32* %4, align 4
  %99 = add nsw i32 %98, 1
  %100 = sext i32 %99 to i64
  %101 = getelementptr inbounds [100 x i32], [100 x i32]* %6, i64 0, i64 %100
  %102 = load i32, i32* %101, align 4
  %103 = load i32, i32* %4, align 4
  %104 = sext i32 %103 to i64
  %105 = getelementptr inbounds [100 x i32], [100 x i32]* %6, i64 0, i64 %104
  store i32 %102, i32* %105, align 4
  %106 = load i32, i32* %5, align 4
  %107 = load i32, i32* %4, align 4
  %108 = add nsw i32 %107, 1
  %109 = sext i32 %108 to i64
  %110 = getelementptr inbounds [100 x i32], [100 x i32]* %6, i64 0, i64 %109
  store i32 %106, i32* %110, align 4
  br label %111

111:                                              ; preds = %93, %76
  br label %112

112:                                              ; preds = %111
  %113 = load i32, i32* %4, align 4
  %114 = add nsw i32 %113, 1
  store i32 %114, i32* %4, align 4
  br label %71

115:                                              ; preds = %71
  br label %116

116:                                              ; preds = %115
  %117 = load i32, i32* %3, align 4
  %118 = add nsw i32 %117, 1
  store i32 %118, i32* %3, align 4
  br label %66

119:                                              ; preds = %66
  store i32 0, i32* %3, align 4
  br label %120

120:                                              ; preds = %144, %119
  %121 = load i32, i32* %3, align 4
  %122 = load i32, i32* %2, align 4
  %123 = icmp slt i32 %121, %122
  br i1 %123, label %124, label %147

124:                                              ; preds = %120
  %125 = load i32, i32* %3, align 4
  %126 = sext i32 %125 to i64
  %127 = getelementptr inbounds [100 x i32], [100 x i32]* %6, i64 0, i64 %126
  %128 = load i32, i32* %127, align 4
  %129 = sext i32 %128 to i64
  %130 = getelementptr inbounds [100 x i32], [100 x i32]* %8, i64 0, i64 %129
  %131 = load i32, i32* %130, align 4
  %132 = icmp sgt i32 %131, 0
  br i1 %132, label %133, label %142

133:                                              ; preds = %124
  %134 = load i32, i32* %3, align 4
  %135 = sext i32 %134 to i64
  %136 = getelementptr inbounds [100 x i32], [100 x i32]* %6, i64 0, i64 %135
  %137 = load i32, i32* %136, align 4
  %138 = sext i32 %137 to i64
  %139 = getelementptr inbounds [100 x [100 x i8]], [100 x [100 x i8]]* %10, i64 0, i64 %138
  %140 = getelementptr inbounds [100 x i8], [100 x i8]* %139, i64 0, i64 0
  %141 = call i32 (i8*, ...) @printf(i8* getelementptr inbounds ([4 x i8], [4 x i8]* @.str.2, i64 0, i64 0), i8* %140)
  br label %143

142:                                              ; preds = %124
  br label %147

143:                                              ; preds = %133
  br label %144

144:                                              ; preds = %143
  %145 = load i32, i32* %3, align 4
  %146 = add nsw i32 %145, 1
  store i32 %146, i32* %3, align 4
  br label %120

147:                                              ; preds = %142, %120
  store i32 0, i32* %3, align 4
  br label %148

148:                                              ; preds = %165, %147
  %149 = load i32, i32* %3, align 4
  %150 = load i32, i32* %2, align 4
  %151 = icmp slt i32 %149, %150
  br i1 %151, label %152, label %168

152:                                              ; preds = %148
  %153 = load i32, i32* %3, align 4
  %154 = sext i32 %153 to i64
  %155 = getelementptr inbounds [100 x i32], [100 x i32]* %9, i64 0, i64 %154
  %156 = load i32, i32* %155, align 4
  %157 = icmp ne i32 %156, 0
  br i1 %157, label %158, label %164

158:                                              ; preds = %152
  %159 = load i32, i32* %3, align 4
  %160 = sext i32 %159 to i64
  %161 = getelementptr inbounds [100 x [100 x i8]], [100 x [100 x i8]]* %10, i64 0, i64 %160
  %162 = getelementptr inbounds [100 x i8], [100 x i8]* %161, i64 0, i64 0
  %163 = call i32 (i8*, ...) @printf(i8* getelementptr inbounds ([4 x i8], [4 x i8]* @.str.2, i64 0, i64 0), i8* %162)
  br label %164

164:                                              ; preds = %158, %152
  br label %165

165:                                              ; preds = %164
  %166 = load i32, i32* %3, align 4
  %167 = add nsw i32 %166, 1
  store i32 %167, i32* %3, align 4
  br label %148

168:                                              ; preds = %148
  ret i32 0
}

; Function Attrs: argmemonly nounwind willreturn
declare void @llvm.memset.p0i8.i64(i8* nocapture writeonly, i8, i64, i1 immarg) #1

declare dso_local i32 @__isoc99_scanf(i8*, ...) #2

declare dso_local i32 @printf(i8*, ...) #2


!llvm.module.flags = !{!0}
!llvm.ident = !{!1}

!0 = !{i32 1, !"wchar_size", i32 4}
!1 = !{!"clang version 10.0.0-4ubuntu1 "}
